target datalayout = "e-m:e-p270:32:32-p271:32:32-p272:64:64-i64:64-i128:128-f80:128-n8:16:32:64-S128"
target triple = "x86_64-pc-linux-gnu"

%struct.Wlc_Ntk_t_ = type { ptr, ptr, %struct.Vec_Int_t_, %struct.Vec_Int_t_, %struct.Vec_Int_t_, %struct.Vec_Int_t_, %struct.Vec_Int_t_, %struct.Vec_Int_t_, ptr, ptr, ptr, [60 x i32], [60 x i32], i32, i32, i32, i32, i32, ptr, i32, i32, ptr, ptr, ptr, ptr, ptr, %struct.Vec_Int_t_, %struct.Vec_Int_t_, i32, %struct.Vec_Int_t_, %struct.Vec_Int_t_, %struct.Vec_Int_t_, %struct.Vec_Int_t_, %struct.Vec_Int_t_, %struct.Vec_Int_t_ }
%struct.Vec_Int_t_ = type { i32, i32, ptr }
%struct.Wlc_Obj_t_ = type { i16, i32, i32, i32, %union.anon }
%union.anon = type { [1 x ptr] }

; Function Attrs: nounwind uwtable
define internal i32 @Wlc_NtkObjNumMax(ptr noundef %0) #0 {
  %2 = alloca ptr, align 8
  store ptr %0, ptr %2, align 8
  %3 = load ptr, ptr %2, align 8
  %4 = getelementptr inbounds %struct.Wlc_Ntk_t_, ptr %3, i32 0, i32 19
  %5 = load i32, ptr %4, align 8
  ret i32 %5
}

; Function Attrs: nounwind uwtable
define internal ptr @Wlc_NtkObj(ptr noundef %0, i32 noundef %1) #0 {
  %3 = alloca ptr, align 8
  %4 = alloca i32, align 4
  store ptr %0, ptr %3, align 8
  store i32 %1, ptr %4, align 4
  %5 = load ptr, ptr %3, align 8
  %6 = getelementptr inbounds %struct.Wlc_Ntk_t_, ptr %5, i32 0, i32 18
  %7 = load ptr, ptr %6, align 8
  %8 = load i32, ptr %4, align 4
  %9 = sext i32 %8 to i64
  %10 = getelementptr inbounds %struct.Wlc_Obj_t_, ptr %7, i64 %9
  ret ptr %10
}

; Function Attrs: nounwind uwtable
define internal i32 @Vec_IntEntry(ptr noundef %0, i32 noundef %1) #0 {
  %3 = alloca ptr, align 8
  %4 = alloca i32, align 4
  store ptr %0, ptr %3, align 8
  store i32 %1, ptr %4, align 4
  %5 = load ptr, ptr %3, align 8
  %6 = getelementptr inbounds %struct.Vec_Int_t_, ptr %5, i32 0, i32 2
  %7 = load ptr, ptr %6, align 8
  %8 = load i32, ptr %4, align 4
  %9 = sext i32 %8 to i64
  %10 = getelementptr inbounds i32, ptr %7, i64 %9
  %11 = load i32, ptr %10, align 4
  ret i32 %11
}

; Function Attrs: nounwind uwtable
define internal i32 @Vec_IntSize(ptr noundef %0) #0 {
  %2 = alloca ptr, align 8
  store ptr %0, ptr %2, align 8
  %3 = load ptr, ptr %2, align 8
  %4 = getelementptr inbounds %struct.Vec_Int_t_, ptr %3, i32 0, i32 1
  %5 = load i32, ptr %4, align 4
  ret i32 %5
}

; Function Attrs: nounwind uwtable
define void @Wlc_NtkCleanMarks(ptr noundef %0) #0 {
  %2 = alloca ptr, align 8
  %3 = alloca ptr, align 8
  %4 = alloca i32, align 4
  store ptr %0, ptr %2, align 8
  store i32 1, ptr %4, align 4
  br label %5

5:                                                ; preds = %21, %1
  %6 = load i32, ptr %4, align 4
  %7 = load ptr, ptr %2, align 8
  %8 = call i32 @Wlc_NtkObjNumMax(ptr noundef %7)
  %9 = icmp slt i32 %6, %8
  br i1 %9, label %10, label %14

10:                                               ; preds = %5
  %11 = load ptr, ptr %2, align 8
  %12 = load i32, ptr %4, align 4
  %13 = call ptr @Wlc_NtkObj(ptr noundef %11, i32 noundef %12)
  store ptr %13, ptr %3, align 8
  br label %14

14:                                               ; preds = %10, %5
  %15 = phi i1 [ false, %5 ], [ true, %10 ]
  br i1 %15, label %16, label %24

16:                                               ; preds = %14
  %17 = load ptr, ptr %3, align 8
  %18 = load i16, ptr %17, align 8
  %19 = and i16 %18, -129
  %20 = or i16 %19, 0
  store i16 %20, ptr %17, align 8
  br label %21

21:                                               ; preds = %16
  %22 = load i32, ptr %4, align 4
  %23 = add nsw i32 %22, 1
  store i32 %23, ptr %4, align 4
  br label %5, !llvm.loop !29

24:                                               ; preds = %14
  ret void
}

; Function Attrs: nounwind uwtable
define internal ptr @Wlc_NtkPi(ptr noundef %0, i32 noundef %1) #0 {
  %3 = alloca ptr, align 8
  %4 = alloca i32, align 4
  store ptr %0, ptr %3, align 8
  store i32 %1, ptr %4, align 4
  %5 = load ptr, ptr %3, align 8
  %6 = load ptr, ptr %3, align 8
  %7 = getelementptr inbounds %struct.Wlc_Ntk_t_, ptr %6, i32 0, i32 2
  %8 = load i32, ptr %4, align 4
  %9 = call i32 @Vec_IntEntry(ptr noundef %7, i32 noundef %8)
  %10 = call ptr @Wlc_NtkObj(ptr noundef %5, i32 noundef %9)
  ret ptr %10
}

; Function Attrs: nounwind uwtable
define internal i32 @Wlc_NtkPiNum(ptr noundef %0) #0 {
  %2 = alloca ptr, align 8
  store ptr %0, ptr %2, align 8
  %3 = load ptr, ptr %2, align 8
  %4 = getelementptr inbounds %struct.Wlc_Ntk_t_, ptr %3, i32 0, i32 2
  %5 = call i32 @Vec_IntSize(ptr noundef %4)
  ret i32 %5
}

; Function Attrs: nounwind uwtable
define i32 @Wlc_NtkCountRealPis(ptr noundef %0) #0 {
  %2 = alloca ptr, align 8
  %3 = alloca ptr, align 8
  %4 = alloca i32, align 4
  %5 = alloca i32, align 4
  store ptr %0, ptr %2, align 8
  store i32 0, ptr %5, align 4
  %6 = load ptr, ptr %2, align 8
  call void @Wlc_NtkMarkCone(ptr noundef %6, i32 noundef -1, i32 noundef -1, i32 noundef 1, i32 noundef 0)
  store i32 0, ptr %4, align 4
  br label %7

7:                                                ; preds = %26, %1
  %8 = load i32, ptr %4, align 4
  %9 = load ptr, ptr %2, align 8
  %10 = call i32 @Wlc_NtkPiNum(ptr noundef %9)
  %11 = icmp slt i32 %8, %10
  br i1 %11, label %12, label %16

12:                                               ; preds = %7
  %13 = load ptr, ptr %2, align 8
  %14 = load i32, ptr %4, align 4
  %15 = call ptr @Wlc_NtkPi(ptr noundef %13, i32 noundef %14)
  store ptr %15, ptr %3, align 8
  br label %16

16:                                               ; preds = %12, %7
  %17 = phi i1 [ false, %7 ], [ true, %12 ]
  br i1 %17, label %18, label %29

18:                                               ; preds = %16
  %19 = load ptr, ptr %3, align 8
  %20 = load i16, ptr %19, align 8
  %21 = lshr i16 %20, 7
  %22 = and i16 %21, 1
  %23 = zext i16 %22 to i32
  %24 = load i32, ptr %5, align 4
  %25 = add nsw i32 %24, %23
  store i32 %25, ptr %5, align 4
  br label %26

26:                                               ; preds = %18
  %27 = load i32, ptr %4, align 4
  %28 = add nsw i32 %27, 1
  store i32 %28, ptr %4, align 4
  br label %7, !llvm.loop !30

29:                                               ; preds = %16
  %30 = load ptr, ptr %2, align 8
  call void @Wlc_NtkCleanMarks(ptr noundef %30)
  %31 = load i32, ptr %5, align 4
  ret i32 %31
}