; Function Attrs: nounwind uwtable
define i32 @Wlc_NtkCountRealPis(ptr noundef readonly captures(none) %0) local_unnamed_addr #3 {
  tail call void @Wlc_NtkMarkCone(ptr noundef %0, i32 noundef -1, i32 noundef -1, i32 noundef 1, i32 noundef 0)
  %2 = getelementptr i8, ptr %0, i64 20
  %.val = load i32, ptr %2, align 4
  %3 = icmp sgt i32 %.val, 0
  br i1 %3, label %.lr.ph, label %.critedge

.lr.ph:                                           ; preds = %1
  %4 = getelementptr i8, ptr %0, i64 24
  %.val10 = load ptr, ptr %4, align 8
  %5 = getelementptr i8, ptr %0, i64 640
  %.val11 = load ptr, ptr %5, align 8
  %wide.trip.count = zext nneg i32 %.val to i64
  br label %6

6:                                                ; preds = %.lr.ph, %6
  %indvars.iv = phi i64 [ 0, %.lr.ph ], [ %indvars.iv.next, %6 ]
  %.013 = phi i32 [ 0, %.lr.ph ], [ %15, %6 ]
  %7 = getelementptr inbounds nuw i32, ptr %.val10, i64 %indvars.iv
  %8 = load i32, ptr %7, align 4
  %9 = sext i32 %8 to i64
  %10 = getelementptr inbounds %struct.Wlc_Obj_t_, ptr %.val11, i64 %9
  %11 = load i16, ptr %10, align 8
  %12 = lshr i16 %11, 7
  %13 = and i16 %12, 1
  %14 = zext nneg i16 %13 to i32
  %15 = add nuw nsw i32 %.013, %14
  %indvars.iv.next = add nuw nsw i64 %indvars.iv, 1
  %exitcond.not = icmp eq i64 %indvars.iv.next, %wide.trip.count
  br i1 %exitcond.not, label %.critedge, label %6, !llvm.loop !30

.critedge:                                        ; preds = %6, %1
  %.0.lcssa = phi i32 [ 0, %1 ], [ %15, %6 ]
  %16 = getelementptr i8, ptr %0, i64 648
  %.val56.i = load i32, ptr %16, align 8
  %17 = icmp sgt i32 %.val56.i, 1
  br i1 %17, label %.lr.ph.i, label %Wlc_NtkCleanMarks.exit

.lr.ph.i:                                         ; preds = %.critedge
  %18 = getelementptr i8, ptr %0, i64 640
  br label %19

19:                                               ; preds = %19, %.lr.ph.i
  %indvars.iv.i = phi i64 [ 1, %.lr.ph.i ], [ %indvars.iv.next.i, %19 ]
  %.val.i = load ptr, ptr %18, align 8
  %20 = getelementptr inbounds nuw %struct.Wlc_Obj_t_, ptr %.val.i, i64 %indvars.iv.i
  %21 = load i16, ptr %20, align 8
  %22 = and i16 %21, -129
  store i16 %22, ptr %20, align 8
  %indvars.iv.next.i = add nuw nsw i64 %indvars.iv.i, 1
  %.val5.i = load i32, ptr %16, align 8
  %23 = sext i32 %.val5.i to i64
  %24 = icmp slt i64 %indvars.iv.next.i, %23
  br i1 %24, label %19, label %Wlc_NtkCleanMarks.exit, !llvm.loop !26

Wlc_NtkCleanMarks.exit:                           ; preds = %19, %.critedge
  ret i32 %.0.lcssa
}